libkgraphviewer.so.3 libkgraphviewer3 #MINVER#
 _ZN12KGraphViewer12DotGraphView10enterEventEP6QEvent@Base 4:2.1.1
 _ZN12KGraphViewer12DotGraphView10hoverEnterERK7QString@Base 4:2.1.1
 _ZN12KGraphViewer12DotGraphView10hoverLeaveERK7QString@Base 4:2.1.1
 _ZN12KGraphViewer12DotGraphView10leaveEventEP6QEvent@Base 4:2.1.1
 _ZN12KGraphViewer12DotGraphView10removeEdgeERK7QString@Base 4:2.1.1
 _ZN12KGraphViewer12DotGraphView10slotUpdateEv@Base 4:2.1.1
 _ZN12KGraphViewer12DotGraphView10timerEventEP11QTimerEvent@Base 4:2.1.1
 _ZN12KGraphViewer12DotGraphView10wheelEventEP11QWheelEvent@Base 4:2.1.1
 _ZN12KGraphViewer12DotGraphView11configGroupEP7KConfigRK7QStringS5_@Base 4:2.1.1
 _ZN12KGraphViewer12DotGraphView11dotFileNameEv@Base 4:2.1.1
 _ZN12KGraphViewer12DotGraphView11graphLoadedEv@Base 4:2.1.1
 _ZN12KGraphViewer12DotGraphView11loadLibraryEP8Agraph_tRK7QString@Base 4:2.1.1
 _ZN12KGraphViewer12DotGraphView11loadLibraryERK7QString@Base 4:2.1.1
 _ZN12KGraphViewer12DotGraphView11qt_metacallEN11QMetaObject4CallEiPPv@Base 4:2.1.1
 _ZN12KGraphViewer12DotGraphView11qt_metacastEPKc@Base 4:2.1.1
 _ZN12KGraphViewer12DotGraphView11resizeEventEP12QResizeEvent@Base 4:2.1.1
 _ZN12KGraphViewer12DotGraphView11selectionIsE5QListI7QStringERK6QPoint@Base 4:2.1.1
 _ZN12KGraphViewer12DotGraphView11setReadOnlyEv@Base 4:2.1.1
 _ZN12KGraphViewer12DotGraphView12centerOnNodeERK7QString@Base 4:2.1.1
 _ZN12KGraphViewer12DotGraphView12displayGraphEv@Base 4:2.1.1
 _ZN12KGraphViewer12DotGraphView12focusInEventEP11QFocusEvent@Base 4:2.1.1
 _ZN12KGraphViewer12DotGraphView12highlightingEv@Base 4:2.1.1
 _ZN12KGraphViewer12DotGraphView12newEdgeAddedERK7QStringS3_@Base 4:2.1.1
 _ZN12KGraphViewer12DotGraphView12newNodeAddedERK7QString@Base 4:2.1.1
 _ZN12KGraphViewer12DotGraphView12printPreviewEv@Base 4:2.1.1
 _ZN12KGraphViewer12DotGraphView12setReadWriteEv@Base 4:2.1.1
 _ZN12KGraphViewer12DotGraphView13focusOutEventEP11QFocusEvent@Base 4:2.1.1
 _ZN12KGraphViewer12DotGraphView13keyPressEventEP9QKeyEvent@Base 4:2.1.1
 _ZN12KGraphViewer12DotGraphView13removeElementERK7QString@Base 4:2.1.1
 _ZN12KGraphViewer12DotGraphView13setZoomFactorEd@Base 4:2.1.1
 _ZN12KGraphViewer12DotGraphView13zoomPosStringENS_21KGraphViewerInterface14PannerPositionE@Base 4:2.1.1
 _ZN12KGraphViewer12DotGraphView14mouseMoveEventEP11QMouseEvent@Base 4:2.1.1
 _ZN12KGraphViewer12DotGraphView14readViewConfigEv@Base 4:2.1.1
 _ZN12KGraphViewer12DotGraphView14saveViewConfigEv@Base 4:2.1.1
 _ZN12KGraphViewer12DotGraphView14slotBevToggledEv@Base 4:2.1.1
 _ZN12KGraphViewer12DotGraphView14slotBevTopLeftEv@Base 4:2.1.1
 _ZN12KGraphViewer12DotGraphView14slotSelectNodeERK7QString@Base 4:2.1.1
 _ZN12KGraphViewer12DotGraphView15finishNewEdgeToEPNS_13CanvasElementE@Base 4:2.1.1
 _ZN12KGraphViewer12DotGraphView15mousePressEventEP11QMouseEvent@Base 4:2.1.1
 _ZN12KGraphViewer12DotGraphView15newEdgeFinishedERK7QStringS3_RK4QMapIS1_S1_E@Base 4:2.1.1
 _ZN12KGraphViewer12DotGraphView15removeNodeNamedERK7QString@Base 4:2.1.1
 _ZN12KGraphViewer12DotGraphView15setHighlightingEb@Base 4:2.1.1
 _ZN12KGraphViewer12DotGraphView15slotBevTopRightEv@Base 4:2.1.1
 _ZN12KGraphViewer12DotGraphView15slotExportImageEv@Base 4:2.1.1
 _ZN12KGraphViewer12DotGraphView15slotLayoutResetEv@Base 4:2.1.1
 _ZN12KGraphViewer12DotGraphView15slotLoadLibraryEP8Agraph_t@Base 4:2.1.1
 _ZN12KGraphViewer12DotGraphView15zoomRectMovedToE7QPointF@Base 4:2.1.1
 _ZN12KGraphViewer12DotGraphView16contextMenuEventEP17QContextMenuEvent@Base 4:2.1.1
 _ZN12KGraphViewer12DotGraphView16contextMenuEventERK7QStringRK6QPoint@Base 4:2.1.1
 _ZN12KGraphViewer12DotGraphView16hideToolsWindowsEv@Base 4:2.1.1
 _ZN12KGraphViewer12DotGraphView16scrollContentsByEii@Base 4:2.1.1
 _ZN12KGraphViewer12DotGraphView16setLayoutCommandERK7QString@Base 4:2.1.1
 _ZN12KGraphViewer12DotGraphView16setPannerEnabledEb@Base 4:2.1.1
 _ZN12KGraphViewer12DotGraphView16slotBevAutomaticEv@Base 4:2.1.1
 _ZN12KGraphViewer12DotGraphView16slotEdgeSelectedEPNS_10CanvasEdgeE6QFlagsIN2Qt16KeyboardModifierEE@Base 4:2.1.1
 _ZN12KGraphViewer12DotGraphView16staticMetaObjectE@Base 4:2.1.1
 _ZN12KGraphViewer12DotGraphView16viewBevActivatedEi@Base 4:2.1.1
 _ZN12KGraphViewer12DotGraphView16writeConfigEntryEP12KConfigGroupPKcRK7QStringS4_@Base 4:2.1.1
 _ZN12KGraphViewer12DotGraphView16writeConfigEntryEP12KConfigGroupPKcbb@Base 4:2.1.1
 _ZN12KGraphViewer12DotGraphView16writeConfigEntryEP12KConfigGroupPKcdd@Base 4:2.1.1
 _ZN12KGraphViewer12DotGraphView16writeConfigEntryEP12KConfigGroupPKcii@Base 4:2.1.1
 _ZN12KGraphViewer12DotGraphView17mouseReleaseEventEP11QMouseEvent@Base 4:2.1.1
 _ZN12KGraphViewer12DotGraphView17prepareAddNewEdgeE4QMapI7QStringS2_E@Base 4:2.1.1
 _ZN12KGraphViewer12DotGraphView17slotBevBottomLeftEv@Base 4:2.1.1
 _ZN12KGraphViewer12DotGraphView17slotLayoutSpecifyEv@Base 4:2.1.1
 _ZN12KGraphViewer12DotGraphView18setBackgroundColorERK6QColor@Base 4:2.1.1
 _ZN12KGraphViewer12DotGraphView18slotBevBottomRightEv@Base 4:2.1.1
 _ZN12KGraphViewer12DotGraphView19removeSelectedEdgesEv@Base 4:2.1.1
 _ZN12KGraphViewer12DotGraphView19removeSelectedNodesEv@Base 4:2.1.1
 _ZN12KGraphViewer12DotGraphView19sigViewBevActivatedEi@Base 4:2.1.1
 _ZN12KGraphViewer12DotGraphView19slotElementSelectedEPNS_13CanvasElementE6QFlagsIN2Qt16KeyboardModifierEE@Base 4:2.1.1
 _ZN12KGraphViewer12DotGraphView19slotSelectLayoutDotEv@Base 4:2.1.1
 _ZN12KGraphViewer12DotGraphView19slotSelectLayoutFdpEv@Base 4:2.1.1
 _ZN12KGraphViewer12DotGraphView20prepareAddNewElementE4QMapI7QStringS2_E@Base 4:2.1.1
 _ZN12KGraphViewer12DotGraphView20setDefaultNewElementEPNS_12GraphElementE@Base 4:2.1.1
 _ZN12KGraphViewer12DotGraphView20slotContextMenuEventERK7QStringRK6QPoint@Base 4:2.1.1
 _ZN12KGraphViewer12DotGraphView20slotSelectLayoutAlgoERK7QString@Base 4:2.1.1
 _ZN12KGraphViewer12DotGraphView20slotSelectionChangedEv@Base 4:2.1.1
 _ZN12KGraphViewer12DotGraphView20zoomRectMoveFinishedEv@Base 4:2.1.1
 _ZN12KGraphViewer12DotGraphView21mouseDoubleClickEventEP11QMouseEvent@Base 4:2.1.1
 _ZN12KGraphViewer12DotGraphView21prepareSelectElementsEv@Base 4:2.1.1
 _ZN12KGraphViewer12DotGraphView21slotElementHoverEnterEPNS_10CanvasEdgeE@Base 4:2.1.1
 _ZN12KGraphViewer12DotGraphView21slotElementHoverEnterEPNS_13CanvasElementE@Base 4:2.1.1
 _ZN12KGraphViewer12DotGraphView21slotElementHoverLeaveEPNS_10CanvasEdgeE@Base 4:2.1.1
 _ZN12KGraphViewer12DotGraphView21slotElementHoverLeaveEPNS_13CanvasElementE@Base 4:2.1.1
 _ZN12KGraphViewer12DotGraphView21slotSelectLayoutCircoEv@Base 4:2.1.1
 _ZN12KGraphViewer12DotGraphView21slotSelectLayoutNeatoEv@Base 4:2.1.1
 _ZN12KGraphViewer12DotGraphView21slotSelectLayoutTwopiEv@Base 4:2.1.1
 _ZN12KGraphViewer12DotGraphView22createNewEdgeDraftFromEPNS_13CanvasElementE@Base 4:2.1.1
 _ZN12KGraphViewer12DotGraphView22removeSelectedElementsEv@Base 4:2.1.1
 _ZN12KGraphViewer12DotGraphView22slotAGraphReadFinishedEv@Base 4:2.1.1
 _ZN12KGraphViewer12DotGraphView23removeSelectedSubgraphsEv@Base 4:2.1.1
 _ZN12KGraphViewer12DotGraphView24sigViewBevEnabledToggledEb@Base 4:2.1.1
 _ZN12KGraphViewer12DotGraphView24slotAGraphLayoutFinishedEv@Base 4:2.1.1
 _ZN12KGraphViewer12DotGraphView26setDefaultNewElementPixmapERK7QPixmap@Base 4:2.1.1
 _ZN12KGraphViewer12DotGraphView5dirtyERK7QString@Base 4:2.1.1
 _ZN12KGraphViewer12DotGraphView5graphEv@Base 4:2.1.1
 _ZN12KGraphViewer12DotGraphView5printEv@Base 4:2.1.1
 _ZN12KGraphViewer12DotGraphView6reloadEv@Base 4:2.1.1
 _ZN12KGraphViewer12DotGraphView6zoomInEv@Base 4:2.1.1
 _ZN12KGraphViewer12DotGraphView6zoomedEd@Base 4:2.1.1
 _ZN12KGraphViewer12DotGraphView7loadDotERK7QString@Base 4:2.1.1
 _ZN12KGraphViewer12DotGraphView7zoomOutEv@Base 4:2.1.1
 _ZN12KGraphViewer12DotGraphView7zoomPosERK7QString@Base 4:2.1.1
 _ZN12KGraphViewer12DotGraphView8bevPopupEv@Base 4:2.1.1
 _ZN12KGraphViewer12DotGraphView9applyZoomEd@Base 4:2.1.1
 _ZN12KGraphViewer12DotGraphView9initEmptyEv@Base 4:2.1.1
 _ZN12KGraphViewer12DotGraphView9pageSetupEv@Base 4:2.1.1
 _ZN12KGraphViewer12DotGraphViewC1EP17KActionCollectionP7QWidget@Base 4:2.1.1
 _ZN12KGraphViewer12DotGraphViewC2EP17KActionCollectionP7QWidget@Base 4:2.1.1
 _ZN12KGraphViewer12DotGraphViewD0Ev@Base 4:2.1.1
 _ZN12KGraphViewer12DotGraphViewD1Ev@Base 4:2.1.1
 _ZN12KGraphViewer12DotGraphViewD2Ev@Base 4:2.1.1
 _ZN12KGraphViewer8DotGraph10addNewEdgeE7QStringS1_4QMapIS1_S1_E@Base 4:2.1.1
 _ZN12KGraphViewer8DotGraph10addNewNodeE4QMapI7QStringS2_E@Base 4:2.1.1
 _ZN12KGraphViewer8DotGraph10removeEdgeERK7QString@Base 4:2.1.1
 _ZN12KGraphViewer8DotGraph10renameNodeERK7QStringS3_@Base 4:2.1.1
 _ZN12KGraphViewer8DotGraph12setAttributeERK7QStringS3_S3_@Base 4:2.1.1
 _ZN12KGraphViewer8DotGraph13removeElementERK7QString@Base 4:2.1.1
 _ZN12KGraphViewer8DotGraph14addNewSubgraphE4QMapI7QStringS2_E@Base 4:2.1.1
 _ZN12KGraphViewer8DotGraph15removeAttributeERK7QStringS3_@Base 4:2.1.1
 _ZN12KGraphViewer8DotGraph15removeNodeNamedERK7QString@Base 4:2.1.1
 _ZN12KGraphViewer8DotGraph18setGraphAttributesE4QMapI7QStringS2_E@Base 4:2.1.1
 _ZN12KGraphViewer8DotGraph19removeSubgraphNamedERK7QString@Base 4:2.1.1
 _ZN12KGraphViewer8DotGraph20addNewNodeToSubgraphE4QMapI7QStringS2_ES2_@Base 4:2.1.1
 _ZN12KGraphViewer8DotGraph22removeNodeFromSubgraphERK7QStringS3_@Base 4:2.1.1
 _ZN12KGraphViewer8DotGraph25addExistingNodeToSubgraphE4QMapI7QStringS2_ES2_@Base 4:2.1.1
 _ZN12KGraphViewer8DotGraph27moveExistingNodeToMainGraphE4QMapI7QStringS2_E@Base 4:2.1.1
 _ZN12KGraphViewer8DotGraph6saveToERK7QString@Base 4:2.1.1
 _ZNK12KGraphViewer12DotGraphView10isReadOnlyEv@Base 4:2.1.1
 _ZNK12KGraphViewer12DotGraphView10metaObjectEv@Base 4:2.1.1
 _ZNK12KGraphViewer12DotGraphView11editingModeEv@Base 4:2.1.1
 _ZNK12KGraphViewer12DotGraphView11isReadWriteEv@Base 4:2.1.1
 _ZNK12KGraphViewer12DotGraphView17defaultNewElementEv@Base 4:2.1.1
 _ZNK12KGraphViewer12DotGraphView23defaultNewElementPixmapEv@Base 4:2.1.1
 _ZNK12KGraphViewer12DotGraphView4zoomEv@Base 4:2.1.1
 _ZNK12KGraphViewer12DotGraphView5graphEv@Base 4:2.1.1
 _ZNK12KGraphViewer12DotGraphView7zoomPosEv@Base 4:2.1.1
 _ZNKSt8_Rb_treeISsSt4pairIKSsSsESt10_Select1stIS2_ESt4lessISsESaIS2_EE4findERS1_@Base 4:2.1.1
 _ZNSs12_S_constructIPKcEEPcT_S3_RKSaIcESt20forward_iterator_tag@Base 4:2.1.1
 _ZNSs12_S_constructIPcEES0_T_S1_RKSaIcESt20forward_iterator_tag@Base 4:2.1.1
 _ZNSt10_List_baseISsSaISsEE8_M_clearEv@Base 4:2.1.1
 _ZNSt10_List_baseISt3mapISsSsSt4lessISsESaISt4pairIKSsSsEEESaIS7_EE8_M_clearEv@Base 4:2.1.1
 _ZNSt6vectorIiSaIiEE13_M_insert_auxEN9__gnu_cxx17__normal_iteratorIPiS1_EERKi@Base 4:2.1.1
 _ZNSt6vectorImSaImEE13_M_insert_auxEN9__gnu_cxx17__normal_iteratorIPmS1_EERKm@Base 4:2.1.1
 _ZNSt6vectorImSaImEE7reserveEm@Base 4:2.1.1
 _ZNSt8_Rb_treeISsSt4pairIKSsSsESt10_Select1stIS2_ESt4lessISsESaIS2_EE16_M_insert_uniqueERKS2_@Base 4:2.1.1
 _ZNSt8_Rb_treeISsSt4pairIKSsSsESt10_Select1stIS2_ESt4lessISsESaIS2_EE17_M_insert_unique_ESt23_Rb_tree_const_iteratorIS2_ERKS2_@Base 4:2.1.1
 _ZNSt8_Rb_treeISsSt4pairIKSsSsESt10_Select1stIS2_ESt4lessISsESaIS2_EE24_M_get_insert_unique_posERS1_@Base 4:2.1.1
 _ZNSt8_Rb_treeISsSt4pairIKSsSsESt10_Select1stIS2_ESt4lessISsESaIS2_EE29_M_get_insert_hint_unique_posESt23_Rb_tree_const_iteratorIS2_ERS1_@Base 4:2.1.1
 _ZNSt8_Rb_treeISsSt4pairIKSsSsESt10_Select1stIS2_ESt4lessISsESaIS2_EE4findERS1_@Base 4:2.1.1
 _ZNSt8_Rb_treeISsSt4pairIKSsSsESt10_Select1stIS2_ESt4lessISsESaIS2_EE7_M_copyEPKSt13_Rb_tree_nodeIS2_EPSA_@Base 4:2.1.1
 _ZNSt8_Rb_treeISsSt4pairIKSsSsESt10_Select1stIS2_ESt4lessISsESaIS2_EE8_M_eraseEPSt13_Rb_tree_nodeIS2_E@Base 4:2.1.1
 _ZNSt8_Rb_treeISsSt4pairIKSsSsESt10_Select1stIS2_ESt4lessISsESaIS2_EEaSERKS8_@Base 4:2.1.1
 _ZTIN12KGraphViewer12DotGraphViewE@Base 4:2.1.1
 _ZTSN12KGraphViewer12DotGraphViewE@Base 4:2.1.1
 _ZTVN12KGraphViewer12DotGraphViewE@Base 4:2.1.1
 _ZThn16_N12KGraphViewer12DotGraphViewD0Ev@Base 4:2.1.1
 _ZThn16_N12KGraphViewer12DotGraphViewD1Ev@Base 4:2.1.1
